target datalayout = "e-m:e-p270:32:32-p271:32:32-p272:64:64-i64:64-i128:128-f80:128-n8:16:32:64-S128"
target triple = "x86_64-pc-linux-gnu"

%struct.UmbrellaOptions = type { ptr, ptr, ptr, ptr, i8, i8, float, float, float, i8, i32, i32, ptr, i32, float, float, float, float, float, i8, i8, i32, i8, float, i8, i8, i8, i8, i8, i32, ptr, i8, i8, float, i8, float, i8, i32, i32, float, i32, i32, i8, i8, ptr, ptr, double, double, double, i32, [4 x i8], %"class.gmx::ThreeFry2x64Fast", %"class.gmx::TabulatedNormalDistribution" }
%"class.gmx::ThreeFry2x64Fast" = type { %"class.gmx::ThreeFry2x64General.base", [4 x i8] }
%"class.gmx::ThreeFry2x64General.base" = type <{ %"struct.std::array", %"struct.std::array", %"struct.std::array", i32 }>
%"struct.std::array" = type { [2 x i64] }
%"class.gmx::TabulatedNormalDistribution" = type <{ %"class.gmx::TabulatedNormalDistribution<>::param_type", i64, i32, [4 x i8] }>
%"class.gmx::TabulatedNormalDistribution<>::param_type" = type { float, float }
%"class.std::filesystem::__cxx11::path" = type { %"class.std::__cxx11::basic_string", %"struct.std::filesystem::__cxx11::path::_List" }
%"class.std::__cxx11::basic_string" = type { %"struct.std::__cxx11::basic_string<char>::_Alloc_hider", i64, %union.anon.3 }
%"struct.std::__cxx11::basic_string<char>::_Alloc_hider" = type { ptr }
%union.anon.3 = type { i64, [8 x i8] }
%"struct.std::filesystem::__cxx11::path::_List" = type { %"class.std::unique_ptr" }
%"class.std::unique_ptr" = type { %"struct.std::__uniq_ptr_data" }
%"struct.std::__uniq_ptr_data" = type { %"class.std::__uniq_ptr_impl" }
%"class.std::__uniq_ptr_impl" = type { %"class.std::tuple" }
%"class.std::tuple" = type { %"struct.std::_Tuple_impl" }
%"struct.std::_Tuple_impl" = type { %"struct.std::_Head_base.5" }
%"struct.std::_Head_base.5" = type { ptr }

@.str.219 = private unnamed_addr constant [125 x i8] c"generated/home/dtcxzyw/WorkSpace/Projects/compilers/llvm-opt-benchmark/bench/gromacs/gromacs/src/gromacs/gmxana/gmx_wham.cpp\00", align 1
@.str.250 = private unnamed_addr constant [2 x i8] c"r\00", align 1
@.str.251 = private unnamed_addr constant [54 x i8] c"Filename too long in %s. Only %d characters allowed.\0A\00", align 1
@.str.252 = private unnamed_addr constant [9 x i8] c"filename\00", align 1
@.str.253 = private unnamed_addr constant [12 x i8] c"filename[i]\00", align 1
@.str.254 = private unnamed_addr constant [21 x i8] c"Found file %s in %s\0A\00", align 1

; Function Attrs: mustprogress uwtable
define internal void @_ZL13gmx_snew_implIcEvPKcS1_iRPT_m(ptr noundef %0, ptr noundef %1, i32 noundef %2, ptr noundef nonnull align 8 dereferenceable(8) %3, i64 noundef %4) #0 {
  %6 = alloca ptr, align 8
  %7 = alloca ptr, align 8
  %8 = alloca i32, align 4
  %9 = alloca ptr, align 8
  %10 = alloca i64, align 8
  store ptr %0, ptr %6, align 8
  store ptr %1, ptr %7, align 8
  store i32 %2, ptr %8, align 4
  store ptr %3, ptr %9, align 8
  store i64 %4, ptr %10, align 8
  %11 = load ptr, ptr %6, align 8
  %12 = load ptr, ptr %7, align 8
  %13 = load i32, ptr %8, align 4
  %14 = load i64, ptr %10, align 8
  %15 = call noundef ptr @_Z11save_callocPKcS0_imm(ptr noundef %11, ptr noundef %12, i32 noundef %13, i64 noundef %14, i64 noundef 1)
  %16 = load ptr, ptr %9, align 8
  store ptr %15, ptr %16, align 8
  ret void
}

; Function Attrs: mustprogress uwtable
define internal void @_ZL15gmx_srenew_implIPcEvPKcS2_iRPT_m(ptr noundef %0, ptr noundef %1, i32 noundef %2, ptr noundef nonnull align 8 dereferenceable(8) %3, i64 noundef %4) #0 {
  %6 = alloca ptr, align 8
  %7 = alloca ptr, align 8
  %8 = alloca i32, align 4
  %9 = alloca ptr, align 8
  %10 = alloca i64, align 8
  store ptr %0, ptr %6, align 8
  store ptr %1, ptr %7, align 8
  store i32 %2, ptr %8, align 4
  store ptr %3, ptr %9, align 8
  store i64 %4, ptr %10, align 8
  %11 = load ptr, ptr %6, align 8
  %12 = load ptr, ptr %7, align 8
  %13 = load i32, ptr %8, align 4
  %14 = load ptr, ptr %9, align 8
  %15 = load ptr, ptr %14, align 8
  %16 = load i64, ptr %10, align 8
  %17 = call noundef ptr @_Z12save_reallocPKcS0_iPvmm(ptr noundef %11, ptr noundef %12, i32 noundef %13, ptr noundef %15, i64 noundef %16, i64 noundef 8)
  %18 = load ptr, ptr %9, align 8
  store ptr %17, ptr %18, align 8
  ret void
}

; Function Attrs: mustprogress uwtable
define internal void @_ZL12read_wham_inPKcPPPcPiP15UmbrellaOptions(ptr noundef %0, ptr noundef %1, ptr noundef %2, ptr noundef %3) #0 personality ptr @__gxx_personality_v0 {
  %5 = alloca ptr, align 8
  %6 = alloca ptr, align 8
  %7 = alloca ptr, align 8
  %8 = alloca ptr, align 8
  %9 = alloca ptr, align 8
  %10 = alloca [2050 x i8], align 16
  %11 = alloca i32, align 4
  %12 = alloca i32, align 4
  %13 = alloca i32, align 4
  %14 = alloca i32, align 4
  %15 = alloca ptr, align 8
  %16 = alloca %"class.std::filesystem::__cxx11::path", align 8
  %17 = alloca ptr, align 8
  %18 = alloca i32, align 4
  %19 = alloca %"class.std::filesystem::__cxx11::path", align 8
  store ptr %0, ptr %5, align 8
  store ptr %1, ptr %6, align 8
  store ptr %2, ptr %7, align 8
  store ptr %3, ptr %8, align 8
  store ptr null, ptr %9, align 8
  store i32 1, ptr %14, align 4
  call void @_ZNSt10filesystem7__cxx114pathC2IPKcS1_EERKT_NS1_6formatE(ptr noundef nonnull align 8 dereferenceable(40) %16, ptr noundef nonnull align 8 dereferenceable(8) %5, i8 noundef zeroext 2)
  %20 = invoke noundef ptr @_Z10gmx_ffopenRKNSt10filesystem7__cxx114pathEPKc(ptr noundef nonnull align 8 dereferenceable(40) %16, ptr noundef @.str.250)
          to label %21 unwind label %34

21:                                               ; preds = %4
  store ptr %20, ptr %15, align 8
  call void @_ZNSt10filesystem7__cxx114pathD2Ev(ptr noundef nonnull align 8 dereferenceable(40) %16) #2
  store i32 0, ptr %11, align 4
  store i32 0, ptr %12, align 4
  br label %22

22:                                               ; preds = %101, %21
  %23 = getelementptr inbounds [2050 x i8], ptr %10, i64 0, i64 0
  %24 = load ptr, ptr %15, align 8
  %25 = call ptr @fgets(ptr noundef %23, i32 noundef 2050, ptr noundef %24)
  %26 = icmp ne ptr %25, null
  br i1 %26, label %27, label %104

27:                                               ; preds = %22
  %28 = getelementptr inbounds [2050 x i8], ptr %10, i64 0, i64 0
  %29 = call i64 @strlen(ptr noundef %28) #18
  %30 = icmp uge i64 %29, 2048
  br i1 %30, label %31, label %42

31:                                               ; preds = %27
  call void @_ZNSt10filesystem7__cxx114pathC2IA125_cS1_EERKT_NS1_6formatE(ptr noundef nonnull align 8 dereferenceable(40) %19, ptr noundef nonnull align 1 dereferenceable(125) @.str.219, i8 noundef zeroext 2)
  %32 = load ptr, ptr %5, align 8
  invoke void (i32, ptr, i32, ptr, ...) @_Z9gmx_fataliRKNSt10filesystem7__cxx114pathEiPKcz(i32 noundef 0, ptr noundef nonnull align 8 dereferenceable(40) %19, i32 noundef 1511, ptr noundef @.str.251, ptr noundef %32, i32 noundef 2048) #17
          to label %33 unwind label %38

33:                                               ; preds = %31
  unreachable

34:                                               ; preds = %4
  %35 = landingpad { ptr, i32 }
          cleanup
  %36 = extractvalue { ptr, i32 } %35, 0
  store ptr %36, ptr %17, align 8
  %37 = extractvalue { ptr, i32 } %35, 1
  store i32 %37, ptr %18, align 4
  call void @_ZNSt10filesystem7__cxx114pathD2Ev(ptr noundef nonnull align 8 dereferenceable(40) %16) #2
  br label %109

38:                                               ; preds = %31
  %39 = landingpad { ptr, i32 }
          cleanup
  %40 = extractvalue { ptr, i32 } %39, 0
  store ptr %40, ptr %17, align 8
  %41 = extractvalue { ptr, i32 } %39, 1
  store i32 %41, ptr %18, align 4
  call void @_ZNSt10filesystem7__cxx114pathD2Ev(ptr noundef nonnull align 8 dereferenceable(40) %19) #2
  br label %109

42:                                               ; preds = %27
  %43 = load i32, ptr %11, align 4
  %44 = load i32, ptr %12, align 4
  %45 = icmp sge i32 %43, %44
  br i1 %45, label %46, label %68

46:                                               ; preds = %42
  %47 = load i32, ptr %14, align 4
  %48 = load i32, ptr %12, align 4
  %49 = add nsw i32 %48, %47
  store i32 %49, ptr %12, align 4
  %50 = load i32, ptr %12, align 4
  %51 = sext i32 %50 to i64
  call void @_ZL15gmx_srenew_implIPcEvPKcS2_iRPT_m(ptr noundef @.str.252, ptr noundef @.str.219, i32 noundef 1516, ptr noundef nonnull align 8 dereferenceable(8) %9, i64 noundef %51)
  %52 = load i32, ptr %12, align 4
  %53 = load i32, ptr %14, align 4
  %54 = sub nsw i32 %52, %53
  store i32 %54, ptr %13, align 4
  br label %55

55:                                               ; preds = %64, %46
  %56 = load i32, ptr %13, align 4
  %57 = load i32, ptr %12, align 4
  %58 = icmp slt i32 %56, %57
  br i1 %58, label %59, label %67

59:                                               ; preds = %55
  %60 = load ptr, ptr %9, align 8
  %61 = load i32, ptr %13, align 4
  %62 = sext i32 %61 to i64
  %63 = getelementptr inbounds ptr, ptr %60, i64 %62
  call void @_ZL13gmx_snew_implIcEvPKcS1_iRPT_m(ptr noundef @.str.253, ptr noundef @.str.219, i32 noundef 1519, ptr noundef nonnull align 8 dereferenceable(8) %63, i64 noundef 2048)
  br label %64

64:                                               ; preds = %59
  %65 = load i32, ptr %13, align 4
  %66 = add nsw i32 %65, 1
  store i32 %66, ptr %13, align 4
  br label %55, !llvm.loop !12

67:                                               ; preds = %55
  br label %68

68:                                               ; preds = %67, %42
  %69 = getelementptr inbounds [2050 x i8], ptr %10, i64 0, i64 0
  %70 = call i64 @strlen(ptr noundef %69) #18
  %71 = sub i64 %70, 1
  %72 = getelementptr inbounds [2050 x i8], ptr %10, i64 0, i64 %71
  %73 = load i8, ptr %72, align 1
  %74 = sext i8 %73 to i32
  %75 = icmp eq i32 %74, 10
  br i1 %75, label %76, label %81

76:                                               ; preds = %68
  %77 = getelementptr inbounds [2050 x i8], ptr %10, i64 0, i64 0
  %78 = call i64 @strlen(ptr noundef %77) #18
  %79 = sub i64 %78, 1
  %80 = getelementptr inbounds [2050 x i8], ptr %10, i64 0, i64 %79
  store i8 0, ptr %80, align 1
  br label %81

81:                                               ; preds = %76, %68
  %82 = load ptr, ptr %9, align 8
  %83 = load i32, ptr %11, align 4
  %84 = sext i32 %83 to i64
  %85 = getelementptr inbounds ptr, ptr %82, i64 %84
  %86 = load ptr, ptr %85, align 8
  %87 = getelementptr inbounds [2050 x i8], ptr %10, i64 0, i64 0
  %88 = call ptr @strcpy(ptr noundef %86, ptr noundef %87) #2
  %89 = load ptr, ptr %8, align 8
  %90 = getelementptr inbounds %struct.UmbrellaOptions, ptr %89, i32 0, i32 28
  %91 = load i8, ptr %90, align 4
  %92 = trunc i8 %91 to i1
  br i1 %92, label %93, label %101

93:                                               ; preds = %81
  %94 = load ptr, ptr %9, align 8
  %95 = load i32, ptr %11, align 4
  %96 = sext i32 %95 to i64
  %97 = getelementptr inbounds ptr, ptr %94, i64 %96
  %98 = load ptr, ptr %97, align 8
  %99 = load ptr, ptr %5, align 8
  %100 = call i32 (ptr, ...) @printf(ptr noundef @.str.254, ptr noundef %98, ptr noundef %99)
  br label %101

101:                                              ; preds = %93, %81
  %102 = load i32, ptr %11, align 4
  %103 = add nsw i32 %102, 1
  store i32 %103, ptr %11, align 4
  br label %22, !llvm.loop !13

104:                                              ; preds = %22
  %105 = load ptr, ptr %9, align 8
  %106 = load ptr, ptr %6, align 8
  store ptr %105, ptr %106, align 8
  %107 = load i32, ptr %11, align 4
  %108 = load ptr, ptr %7, align 8
  store i32 %107, ptr %108, align 4
  ret void

109:                                              ; preds = %38, %34
  %110 = load ptr, ptr %17, align 8
  %111 = load i32, ptr %18, align 4
  %112 = insertvalue { ptr, i32 } poison, ptr %110, 0
  %113 = insertvalue { ptr, i32 } %112, i32 %111, 1
  resume { ptr, i32 } %113
}