; Function Attrs: mustprogress uwtable
define internal fastcc void @_ZL12read_wham_inPKcPPPcPiP15UmbrellaOptions(ptr noundef %0, ptr nocapture noundef writeonly %1, ptr nocapture noundef writeonly %2) unnamed_addr #0 personality ptr @__gxx_personality_v0 {
  %4 = alloca ptr, align 8
  %5 = alloca [2050 x i8], align 16
  %6 = alloca %"class.std::filesystem::__cxx11::path", align 8
  %7 = alloca %"class.std::filesystem::__cxx11::path", align 8
  store ptr %0, ptr %4, align 8
  call void @_ZNSt10filesystem7__cxx114pathC2IPKcS1_EERKT_NS1_6formatE(ptr noundef nonnull align 8 dereferenceable(40) %6, ptr noundef nonnull align 8 dereferenceable(8) %4, i8 noundef zeroext 2)
  %8 = invoke noundef ptr @_Z10gmx_ffopenRKNSt10filesystem7__cxx114pathEPKc(ptr noundef nonnull align 8 dereferenceable(40) %6, ptr noundef nonnull @.str.250)
          to label %9 unwind label %19

9:                                                ; preds = %3
  %10 = getelementptr inbounds i8, ptr %6, i64 32
  %11 = load ptr, ptr %10, align 8
  %.not.i.i.i = icmp eq ptr %11, null
  br i1 %.not.i.i.i, label %_ZNSt10filesystem7__cxx114pathD2Ev.exit, label %12

12:                                               ; preds = %9
  call void @_ZNKSt10filesystem7__cxx114path5_List13_Impl_deleterclEPNS2_5_ImplE(ptr noundef nonnull align 1 dereferenceable(1) %10, ptr noundef nonnull %11) #20
  br label %_ZNSt10filesystem7__cxx114pathD2Ev.exit

_ZNSt10filesystem7__cxx114pathD2Ev.exit:          ; preds = %9, %12
  store ptr null, ptr %10, align 8
  call void @_ZNSt7__cxx1112basic_stringIcSt11char_traitsIcESaIcEED1Ev(ptr noundef nonnull align 8 dereferenceable(32) %6) #20
  %13 = call ptr @fgets(ptr noundef nonnull %5, i32 noundef 2050, ptr noundef %8)
  %.not9 = icmp eq ptr %13, null
  br i1 %.not9, label %._crit_edge, label %.lr.ph

.lr.ph:                                           ; preds = %_ZNSt10filesystem7__cxx114pathD2Ev.exit, %46
  %indvars.iv = phi i64 [ %indvars.iv.next, %46 ], [ 0, %_ZNSt10filesystem7__cxx114pathD2Ev.exit ]
  %.02211 = phi i32 [ %.1, %46 ], [ 0, %_ZNSt10filesystem7__cxx114pathD2Ev.exit ]
  %.010 = phi ptr [ %.15, %46 ], [ null, %_ZNSt10filesystem7__cxx114pathD2Ev.exit ]
  %14 = call i64 @strlen(ptr noundef nonnull dereferenceable(1) %5) #26
  %15 = icmp ugt i64 %14, 2047
  br i1 %15, label %16, label %23

16:                                               ; preds = %.lr.ph
  call void @_ZNSt10filesystem7__cxx114pathC2IA125_cS1_EERKT_NS1_6formatE(ptr noundef nonnull align 8 dereferenceable(40) %7, ptr noundef nonnull align 1 dereferenceable(125) @.str.219, i8 noundef zeroext 2)
  %17 = load ptr, ptr %4, align 8
  invoke void (i32, ptr, i32, ptr, ...) @_Z9gmx_fataliRKNSt10filesystem7__cxx114pathEiPKcz(i32 noundef 0, ptr noundef nonnull align 8 dereferenceable(40) %7, i32 noundef 1511, ptr noundef nonnull @.str.251, ptr noundef %17, i32 noundef 2048) #25
          to label %18 unwind label %21

18:                                               ; preds = %16
  unreachable

19:                                               ; preds = %3
  %20 = landingpad { ptr, i32 }
          cleanup
  br label %49

21:                                               ; preds = %16
  %22 = landingpad { ptr, i32 }
          cleanup
  br label %49

23:                                               ; preds = %.lr.ph
  %24 = sext i32 %.02211 to i64
  %.not25 = icmp slt i64 %indvars.iv, %24
  br i1 %.not25, label %.loopexit, label %.loopexit.loopexit

.loopexit.loopexit:                               ; preds = %23
  %25 = add nsw i32 %.02211, 1
  %26 = sext i32 %25 to i64
  %27 = call noundef ptr @_Z12save_reallocPKcS0_iPvmm(ptr noundef nonnull @.str.252, ptr noundef nonnull @.str.219, i32 noundef 1516, ptr noundef %.010, i64 noundef %26, i64 noundef 8)
  %28 = getelementptr inbounds ptr, ptr %27, i64 %24
  %29 = call noundef ptr @_Z11save_callocPKcS0_imm(ptr noundef nonnull @.str.253, ptr noundef nonnull @.str.219, i32 noundef 1519, i64 noundef 2048, i64 noundef 1)
  store ptr %29, ptr %28, align 8
  br label %.loopexit

.loopexit:                                        ; preds = %.loopexit.loopexit, %23
  %.15 = phi ptr [ %.010, %23 ], [ %27, %.loopexit.loopexit ]
  %.1 = phi i32 [ %.02211, %23 ], [ %25, %.loopexit.loopexit ]
  %30 = call i64 @strlen(ptr noundef nonnull dereferenceable(1) %5) #26
  %31 = add i64 %30, -1
  %32 = getelementptr inbounds [2050 x i8], ptr %5, i64 0, i64 %31
  %33 = load i8, ptr %32, align 1
  %34 = icmp eq i8 %33, 10
  br i1 %34, label %35, label %36

35:                                               ; preds = %.loopexit
  store i8 0, ptr %32, align 1
  br label %36

36:                                               ; preds = %35, %.loopexit
  %37 = getelementptr inbounds ptr, ptr %.15, i64 %indvars.iv
  %38 = load ptr, ptr %37, align 8
  %39 = call ptr @strcpy(ptr noundef nonnull dereferenceable(1) %38, ptr noundef nonnull dereferenceable(1) %5) #20
  %40 = load i8, ptr getelementptr inbounds (%struct.UmbrellaOptions, ptr @_ZZ8gmx_whamiPPcE3opt, i64 0, i32 28), align 4
  %41 = trunc i8 %40 to i1
  br i1 %41, label %42, label %46

42:                                               ; preds = %36
  %43 = load ptr, ptr %37, align 8
  %44 = load ptr, ptr %4, align 8
  %45 = call i32 (ptr, ...) @printf(ptr noundef nonnull dereferenceable(1) @.str.254, ptr noundef %43, ptr noundef %44)
  br label %46

46:                                               ; preds = %42, %36
  %indvars.iv.next = add nuw nsw i64 %indvars.iv, 1
  %47 = call ptr @fgets(ptr noundef nonnull %5, i32 noundef 2050, ptr noundef %8)
  %.not = icmp eq ptr %47, null
  br i1 %.not, label %._crit_edge.loopexit, label %.lr.ph, !llvm.loop !72

._crit_edge.loopexit:                             ; preds = %46
  %48 = trunc nuw i64 %indvars.iv.next to i32
  br label %._crit_edge

._crit_edge:                                      ; preds = %._crit_edge.loopexit, %_ZNSt10filesystem7__cxx114pathD2Ev.exit
  %.0.lcssa = phi ptr [ null, %_ZNSt10filesystem7__cxx114pathD2Ev.exit ], [ %.15, %._crit_edge.loopexit ]
  %.021.lcssa = phi i32 [ 0, %_ZNSt10filesystem7__cxx114pathD2Ev.exit ], [ %48, %._crit_edge.loopexit ]
  store ptr %.0.lcssa, ptr %1, align 8
  store i32 %.021.lcssa, ptr %2, align 4
  ret void

49:                                               ; preds = %21, %19
  %.sink = phi ptr [ %7, %21 ], [ %6, %19 ]
  %.pn = phi { ptr, i32 } [ %22, %21 ], [ %20, %19 ]
  call void @_ZNSt10filesystem7__cxx114pathD2Ev(ptr noundef nonnull align 8 dereferenceable(40) %.sink) #20
  resume { ptr, i32 } %.pn
}